; Function Attrs: mustprogress uwtable
define void @_ZN6gmxapi16SessionResources17getMdrunnerSignalENS_2md7signalsE(ptr dead_on_unwind noalias writable sret(%"class.gmxapi::Signal") align 8 %0, ptr noundef nonnull align 8 dereferenceable(40) %1, i32 noundef %2) local_unnamed_addr #0 align 2 personality ptr @__gxx_personality_v0 {
  %.not = icmp eq i32 %2, 0
  br i1 %.not, label %9, label %4

4:                                                ; preds = %3
  %5 = tail call ptr @__cxa_allocate_exception(i64 40) #26
  invoke void @_ZN6gmxapi26MissingImplementationErrorCI2NS_14BasicExceptionIS0_EEEPKc(ptr noundef nonnull align 8 dereferenceable(40) %5, ptr noundef nonnull @.str.5)
          to label %6 unwind label %7

6:                                                ; preds = %4
  tail call void @__cxa_throw(ptr nonnull %5, ptr nonnull @_ZTIN6gmxapi26MissingImplementationErrorE, ptr nonnull @_ZN6gmxapi14BasicExceptionINS_26MissingImplementationErrorEED2Ev) #29
  unreachable

7:                                                ; preds = %4
  %8 = landingpad { ptr, i32 }
          cleanup
  br label %24

9:                                                ; preds = %3
  %10 = load ptr, ptr %1, align 8, !tbaa !135
  %11 = getelementptr inbounds nuw i8, ptr %10, i64 64
  %12 = load ptr, ptr %11, align 8, !tbaa !54
  %.not.i = icmp eq ptr %12, null
  %13 = getelementptr inbounds nuw i8, ptr %10, i64 104
  %14 = load ptr, ptr %13, align 8
  %15 = icmp eq ptr %14, null
  %16 = select i1 %.not.i, i1 true, i1 %15
  br i1 %16, label %17, label %22

17:                                               ; preds = %9
  %18 = tail call ptr @__cxa_allocate_exception(i64 40) #26
  invoke void @_ZN6gmxapi13ProtocolErrorCI2NS_14BasicExceptionIS0_EEEPKc(ptr noundef nonnull align 8 dereferenceable(40) %18, ptr noundef nonnull @.str.6)
          to label %19 unwind label %20

19:                                               ; preds = %17
  tail call void @__cxa_throw(ptr nonnull %18, ptr nonnull @_ZTIN6gmxapi13ProtocolErrorE, ptr nonnull @_ZN6gmxapi14BasicExceptionINS_13ProtocolErrorEED2Ev) #29
  unreachable

20:                                               ; preds = %17
  %21 = landingpad { ptr, i32 }
          cleanup
  br label %24

22:                                               ; preds = %9
  %23 = getelementptr inbounds nuw i8, ptr %1, i64 8
  tail call void @_ZN6gmxapi13SignalManager9getSignalERKNSt7__cxx1112basic_stringIcSt11char_traitsIcESaIcEEENS_2md7signalsE(ptr dead_on_unwind writable sret(%"class.gmxapi::Signal") align 8 %0, ptr noundef nonnull align 8 dereferenceable(72) %14, ptr noundef nonnull align 8 dereferenceable(32) %23, i32 noundef 0)
  ret void

24:                                               ; preds = %20, %7
  %.sink = phi ptr [ %18, %20 ], [ %5, %7 ]
  %.pn = phi { ptr, i32 } [ %21, %20 ], [ %8, %7 ]
  tail call void @__cxa_free_exception(ptr nonnull %.sink) #26
  resume { ptr, i32 } %.pn
}